target datalayout = "e-m:e-p270:32:32-p271:32:32-p272:64:64-i64:64-i128:128-f80:128-n8:16:32:64-S128"
target triple = "x86_64-pc-linux-gnu"

%struct.nodeCardsType = type { i8, i8, i8, i8, [4 x i8] }

; Function Attrs: mustprogress nounwind uwtable
define noundef ptr @_ZN11TransTableS9UpdateSOPEiiccP13nodeCardsType(ptr noundef nonnull align 8 dereferenceable(2396) %0, i32 noundef %1, i32 noundef %2, i8 noundef signext %3, i8 noundef signext %4, ptr noundef %5) #5 align 2 {
  %7 = alloca ptr, align 8
  %8 = alloca i32, align 4
  %9 = alloca i32, align 4
  %10 = alloca i8, align 1
  %11 = alloca i8, align 1
  %12 = alloca ptr, align 8
  store ptr %0, ptr %7, align 8
  store i32 %1, ptr %8, align 4
  store i32 %2, ptr %9, align 4
  store i8 %3, ptr %10, align 1
  store i8 %4, ptr %11, align 1
  store ptr %5, ptr %12, align 8
  %13 = load i32, ptr %9, align 4
  %14 = load ptr, ptr %12, align 8
  %15 = getelementptr inbounds nuw %struct.nodeCardsType, ptr %14, i32 0, i32 1
  %16 = load i8, ptr %15, align 1
  %17 = sext i8 %16 to i32
  %18 = icmp sgt i32 %13, %17
  br i1 %18, label %19, label %24

19:                                               ; preds = %6
  %20 = load i32, ptr %9, align 4
  %21 = trunc i32 %20 to i8
  %22 = load ptr, ptr %12, align 8
  %23 = getelementptr inbounds nuw %struct.nodeCardsType, ptr %22, i32 0, i32 1
  store i8 %21, ptr %23, align 1
  br label %24

24:                                               ; preds = %19, %6
  %25 = load i32, ptr %8, align 4
  %26 = load ptr, ptr %12, align 8
  %27 = getelementptr inbounds nuw %struct.nodeCardsType, ptr %26, i32 0, i32 0
  %28 = load i8, ptr %27, align 1
  %29 = sext i8 %28 to i32
  %30 = icmp slt i32 %25, %29
  br i1 %30, label %31, label %36

31:                                               ; preds = %24
  %32 = load i32, ptr %8, align 4
  %33 = trunc i32 %32 to i8
  %34 = load ptr, ptr %12, align 8
  %35 = getelementptr inbounds nuw %struct.nodeCardsType, ptr %34, i32 0, i32 0
  store i8 %33, ptr %35, align 1
  br label %36

36:                                               ; preds = %31, %24
  %37 = load i8, ptr %10, align 1
  %38 = load ptr, ptr %12, align 8
  %39 = getelementptr inbounds nuw %struct.nodeCardsType, ptr %38, i32 0, i32 2
  store i8 %37, ptr %39, align 1
  %40 = load i8, ptr %11, align 1
  %41 = load ptr, ptr %12, align 8
  %42 = getelementptr inbounds nuw %struct.nodeCardsType, ptr %41, i32 0, i32 3
  store i8 %40, ptr %42, align 1
  %43 = load ptr, ptr %12, align 8
  ret ptr %43
}