; Function Attrs: mustprogress nofree norecurse nosync nounwind willreturn memory(argmem: readwrite) uwtable
define noundef ptr @_ZN11TransTableS9UpdateSOPEiiccP13nodeCardsType(ptr nocapture noundef nonnull readnone align 8 dereferenceable(2396) %0, i32 noundef %1, i32 noundef %2, i8 noundef signext %3, i8 noundef signext %4, ptr noundef returned %5) local_unnamed_addr #19 align 2 {
  %7 = getelementptr inbounds nuw i8, ptr %5, i64 1
  %8 = load i8, ptr %7, align 1
  %9 = sext i8 %8 to i32
  %10 = icmp sgt i32 %2, %9
  br i1 %10, label %11, label %13

11:                                               ; preds = %6
  %12 = trunc i32 %2 to i8
  store i8 %12, ptr %7, align 1
  br label %13

13:                                               ; preds = %11, %6
  %14 = load i8, ptr %5, align 1
  %15 = sext i8 %14 to i32
  %16 = icmp slt i32 %1, %15
  br i1 %16, label %17, label %19

17:                                               ; preds = %13
  %18 = trunc i32 %1 to i8
  store i8 %18, ptr %5, align 1
  br label %19

19:                                               ; preds = %17, %13
  %20 = getelementptr inbounds nuw i8, ptr %5, i64 2
  store i8 %3, ptr %20, align 1
  %21 = getelementptr inbounds nuw i8, ptr %5, i64 3
  store i8 %4, ptr %21, align 1
  ret ptr %5
}